; Function Attrs: nounwind uwtable
define internal { i64, i64 } @js_std_tmpfile(ptr noundef %0, i64 %1, i64 %2, i32 noundef %3, ptr nocapture noundef readonly %4) #0 {
  %6 = tail call noalias ptr @tmpfile()
  %7 = icmp sgt i32 %3, 0
  br i1 %7, label %8, label %js_set_error_object.exit

8:                                                ; preds = %5
  %.not = icmp eq ptr %6, null
  br i1 %.not, label %9, label %13

9:                                                ; preds = %8
  %10 = tail call ptr @__errno_location() #28
  %11 = load i32, ptr %10, align 4
  %12 = zext i32 %11 to i64
  br label %13

13:                                               ; preds = %8, %9
  %.sroa.06.0.insert.ext.i = phi i64 [ %12, %9 ], [ 0, %8 ]
  %14 = getelementptr inbounds i8, ptr %4, i64 8
  %15 = load i64, ptr %14, align 8
  %16 = and i64 %15, 4294967295
  %.not.i = icmp eq i64 %16, 3
  br i1 %.not.i, label %js_set_error_object.exit, label %17

17:                                               ; preds = %13
  %18 = load i64, ptr %4, align 8
  %19 = tail call i32 @JS_SetPropertyStr(ptr noundef %0, i64 %18, i64 %15, ptr noundef nonnull @.str.86, i64 %.sroa.06.0.insert.ext.i, i64 0) #29
  br label %js_set_error_object.exit

js_set_error_object.exit:                         ; preds = %17, %13, %5
  %.not8 = icmp eq ptr %6, null
  br i1 %.not8, label %41, label %20

20:                                               ; preds = %js_set_error_object.exit
  %21 = load i32, ptr @js_std_file_class_id, align 4
  %22 = tail call { i64, i64 } @JS_NewObjectClass(ptr noundef %0, i32 noundef %21) #29
  %23 = extractvalue { i64, i64 } %22, 0
  %24 = extractvalue { i64, i64 } %22, 1
  %25 = and i64 %24, 4294967295
  %.not.i9 = icmp eq i64 %25, 6
  br i1 %.not.i9, label %26, label %27

26:                                               ; preds = %20
  %.sroa.4.0.extract.shift.i = and i64 %23, -4294967296
  br label %js_new_std_file.exit

27:                                               ; preds = %20
  %28 = tail call ptr @js_mallocz(ptr noundef %0, i64 noundef 16) #29
  %.not24.i = icmp eq ptr %28, null
  br i1 %.not24.i, label %29, label %38

29:                                               ; preds = %27
  %30 = trunc i64 %24 to i32
  %31 = icmp ugt i32 %30, -12
  br i1 %31, label %32, label %js_new_std_file.exit

32:                                               ; preds = %29
  %33 = inttoptr i64 %23 to ptr
  %34 = load i32, ptr %33, align 4
  %35 = add i32 %34, -1
  store i32 %35, ptr %33, align 4
  %36 = icmp slt i32 %35, 1
  br i1 %36, label %37, label %js_new_std_file.exit

37:                                               ; preds = %32
  tail call void @__JS_FreeValue(ptr noundef %0, i64 %23, i64 %24) #29
  br label %js_new_std_file.exit

38:                                               ; preds = %27
  %39 = getelementptr inbounds i8, ptr %28, i64 8
  store i32 1, ptr %39, align 8
  %40 = getelementptr inbounds i8, ptr %28, i64 12
  store i32 0, ptr %40, align 4
  store ptr %6, ptr %28, align 8
  tail call void @JS_SetOpaque(i64 %23, i64 %24, ptr noundef nonnull %28) #29
  %.sroa.4.0.extract.shift20.i = and i64 %23, -4294967296
  br label %js_new_std_file.exit

js_new_std_file.exit:                             ; preds = %26, %29, %32, %37, %38
  %.sroa.018.0.i = phi i64 [ %23, %26 ], [ %23, %38 ], [ 0, %29 ], [ 0, %32 ], [ 0, %37 ]
  %.sroa.4.sroa.0.0.i = phi i64 [ %.sroa.4.0.extract.shift.i, %26 ], [ %.sroa.4.0.extract.shift20.i, %38 ], [ 0, %29 ], [ 0, %32 ], [ 0, %37 ]
  %.sroa.4.sroa.3.0.i = phi i64 [ %24, %26 ], [ %24, %38 ], [ 6, %29 ], [ 6, %32 ], [ 6, %37 ]
  %.sroa.018.0.insert.ext.i = and i64 %.sroa.018.0.i, 4294967295
  %.sroa.018.0.insert.insert.i = or disjoint i64 %.sroa.4.sroa.0.0.i, %.sroa.018.0.insert.ext.i
  br label %41

41:                                               ; preds = %js_set_error_object.exit, %js_new_std_file.exit
  %.sroa.3.sroa.2.0 = phi i64 [ %.sroa.4.sroa.3.0.i, %js_new_std_file.exit ], [ 2, %js_set_error_object.exit ]
  %.sroa.06.0.insert.insert = phi i64 [ %.sroa.018.0.insert.insert.i, %js_new_std_file.exit ], [ 0, %js_set_error_object.exit ]
  %.fca.0.insert = insertvalue { i64, i64 } poison, i64 %.sroa.06.0.insert.insert, 0
  %.fca.1.insert = insertvalue { i64, i64 } %.fca.0.insert, i64 %.sroa.3.sroa.2.0, 1
  ret { i64, i64 } %.fca.1.insert
}